target datalayout = "e-m:e-p270:32:32-p271:32:32-p272:64:64-i64:64-i128:128-f80:128-n8:16:32:64-S128"
target triple = "x86_64-pc-linux-gnu"

%struct._expr = type { i32, %union.anon.37, i32, i32, i32, i32 }
%union.anon.37 = type { %struct.anon.40 }
%struct.anon.40 = type { ptr, i32, ptr }
%struct.anon.45 = type { ptr }

; Function Attrs: nounwind uwtable
define hidden ptr @_PyAST_Set(ptr noundef %0, i32 noundef %1, i32 noundef %2, i32 noundef %3, i32 noundef %4, ptr noundef %5) #0 {
  %7 = alloca ptr, align 8
  %8 = alloca ptr, align 8
  %9 = alloca i32, align 4
  %10 = alloca i32, align 4
  %11 = alloca i32, align 4
  %12 = alloca i32, align 4
  %13 = alloca ptr, align 8
  %14 = alloca ptr, align 8
  %15 = alloca i32, align 4
  store ptr %0, ptr %8, align 8, !tbaa !26
  store i32 %1, ptr %9, align 4, !tbaa !38
  store i32 %2, ptr %10, align 4, !tbaa !38
  store i32 %3, ptr %11, align 4, !tbaa !38
  store i32 %4, ptr %12, align 4, !tbaa !38
  store ptr %5, ptr %13, align 8, !tbaa !24
  call void @llvm.lifetime.start.p0(i64 8, ptr %14) #8
  %16 = load ptr, ptr %13, align 8, !tbaa !24
  %17 = call ptr @_PyArena_Malloc(ptr noundef %16, i64 noundef 48)
  store ptr %17, ptr %14, align 8, !tbaa !34
  %18 = load ptr, ptr %14, align 8, !tbaa !34
  %19 = icmp ne ptr %18, null
  br i1 %19, label %21, label %20

20:                                               ; preds = %6
  store ptr null, ptr %7, align 8
  store i32 1, ptr %15, align 4
  br label %41

21:                                               ; preds = %6
  %22 = load ptr, ptr %14, align 8, !tbaa !34
  %23 = getelementptr inbounds nuw %struct._expr, ptr %22, i32 0, i32 0
  store i32 8, ptr %23, align 8, !tbaa !47
  %24 = load ptr, ptr %8, align 8, !tbaa !26
  %25 = load ptr, ptr %14, align 8, !tbaa !34
  %26 = getelementptr inbounds nuw %struct._expr, ptr %25, i32 0, i32 1
  %27 = getelementptr inbounds nuw %struct.anon.45, ptr %26, i32 0, i32 0
  store ptr %24, ptr %27, align 8, !tbaa !21
  %28 = load i32, ptr %9, align 4, !tbaa !38
  %29 = load ptr, ptr %14, align 8, !tbaa !34
  %30 = getelementptr inbounds nuw %struct._expr, ptr %29, i32 0, i32 2
  store i32 %28, ptr %30, align 8, !tbaa !49
  %31 = load i32, ptr %10, align 4, !tbaa !38
  %32 = load ptr, ptr %14, align 8, !tbaa !34
  %33 = getelementptr inbounds nuw %struct._expr, ptr %32, i32 0, i32 3
  store i32 %31, ptr %33, align 4, !tbaa !50
  %34 = load i32, ptr %11, align 4, !tbaa !38
  %35 = load ptr, ptr %14, align 8, !tbaa !34
  %36 = getelementptr inbounds nuw %struct._expr, ptr %35, i32 0, i32 4
  store i32 %34, ptr %36, align 8, !tbaa !51
  %37 = load i32, ptr %12, align 4, !tbaa !38
  %38 = load ptr, ptr %14, align 8, !tbaa !34
  %39 = getelementptr inbounds nuw %struct._expr, ptr %38, i32 0, i32 5
  store i32 %37, ptr %39, align 4, !tbaa !52
  %40 = load ptr, ptr %14, align 8, !tbaa !34
  store ptr %40, ptr %7, align 8
  store i32 1, ptr %15, align 4
  br label %41

41:                                               ; preds = %21, %20
  call void @llvm.lifetime.end.p0(i64 8, ptr %14) #8
  %42 = load ptr, ptr %7, align 8
  ret ptr %42
}